target datalayout = "e-m:e-p270:32:32-p271:32:32-p272:64:64-i64:64-i128:128-f80:128-n8:16:32:64-S128"
target triple = "x86_64-pc-linux-gnu"

%struct.JsonLexContext = type { ptr, i64, i32, ptr, ptr, ptr, i8, i32, i32, i32, i32, ptr, ptr, ptr, i8, ptr, ptr }
%struct.GetState = type { ptr, ptr, ptr, i8, i8, i32, ptr, ptr, ptr, ptr }

; Function Attrs: nounwind uwtable
define internal i32 @get_array_start(ptr noundef %0) #0 {
  %2 = alloca ptr, align 8
  %3 = alloca ptr, align 8
  %4 = alloca i32, align 4
  %5 = alloca i32, align 4
  %6 = alloca i32, align 4
  store ptr %0, ptr %2, align 8
  call void @llvm.lifetime.start.p0(i64 8, ptr %3) #10
  %7 = load ptr, ptr %2, align 8
  store ptr %7, ptr %3, align 8
  call void @llvm.lifetime.start.p0(i64 4, ptr %4) #10
  %8 = load ptr, ptr %3, align 8
  %9 = getelementptr inbounds nuw %struct.GetState, ptr %8, i32 0, i32 0
  %10 = load ptr, ptr %9, align 8
  %11 = getelementptr inbounds nuw %struct.JsonLexContext, ptr %10, i32 0, i32 8
  %12 = load i32, ptr %11, align 8
  store i32 %12, ptr %4, align 4
  %13 = load i32, ptr %4, align 4
  %14 = load ptr, ptr %3, align 8
  %15 = getelementptr inbounds nuw %struct.GetState, ptr %14, i32 0, i32 5
  %16 = load i32, ptr %15, align 4
  %17 = icmp slt i32 %13, %16
  br i1 %17, label %18, label %77

18:                                               ; preds = %1
  %19 = load ptr, ptr %3, align 8
  %20 = getelementptr inbounds nuw %struct.GetState, ptr %19, i32 0, i32 9
  %21 = load ptr, ptr %20, align 8
  %22 = load i32, ptr %4, align 4
  %23 = sext i32 %22 to i64
  %24 = getelementptr inbounds i32, ptr %21, i64 %23
  store i32 -1, ptr %24, align 4
  %25 = load ptr, ptr %3, align 8
  %26 = getelementptr inbounds nuw %struct.GetState, ptr %25, i32 0, i32 7
  %27 = load ptr, ptr %26, align 8
  %28 = load i32, ptr %4, align 4
  %29 = sext i32 %28 to i64
  %30 = getelementptr inbounds i32, ptr %27, i64 %29
  %31 = load i32, ptr %30, align 4
  %32 = icmp slt i32 %31, 0
  br i1 %32, label %33, label %76

33:                                               ; preds = %18
  %34 = load ptr, ptr %3, align 8
  %35 = getelementptr inbounds nuw %struct.GetState, ptr %34, i32 0, i32 7
  %36 = load ptr, ptr %35, align 8
  %37 = load i32, ptr %4, align 4
  %38 = sext i32 %37 to i64
  %39 = getelementptr inbounds i32, ptr %36, i64 %38
  %40 = load i32, ptr %39, align 4
  %41 = icmp ne i32 %40, -2147483648
  br i1 %41, label %42, label %76

42:                                               ; preds = %33
  call void @llvm.lifetime.start.p0(i64 4, ptr %5) #10
  call void @llvm.lifetime.start.p0(i64 4, ptr %6) #10
  %43 = load ptr, ptr %3, align 8
  %44 = getelementptr inbounds nuw %struct.GetState, ptr %43, i32 0, i32 0
  %45 = load ptr, ptr %44, align 8
  %46 = call i32 @json_count_array_elements(ptr noundef %45, ptr noundef %6)
  store i32 %46, ptr %5, align 4
  %47 = load i32, ptr %5, align 4
  %48 = icmp ne i32 %47, 0
  br i1 %48, label %49, label %54

49:                                               ; preds = %42
  %50 = load i32, ptr %5, align 4
  %51 = load ptr, ptr %3, align 8
  %52 = getelementptr inbounds nuw %struct.GetState, ptr %51, i32 0, i32 0
  %53 = load ptr, ptr %52, align 8
  call void @json_errsave_error(i32 noundef %50, ptr noundef %53, ptr noundef null)
  br label %54

54:                                               ; preds = %49, %42
  %55 = load ptr, ptr %3, align 8
  %56 = getelementptr inbounds nuw %struct.GetState, ptr %55, i32 0, i32 7
  %57 = load ptr, ptr %56, align 8
  %58 = load i32, ptr %4, align 4
  %59 = sext i32 %58 to i64
  %60 = getelementptr inbounds i32, ptr %57, i64 %59
  %61 = load i32, ptr %60, align 4
  %62 = sub i32 0, %61
  %63 = load i32, ptr %6, align 4
  %64 = icmp sle i32 %62, %63
  br i1 %64, label %65, label %75

65:                                               ; preds = %54
  %66 = load i32, ptr %6, align 4
  %67 = load ptr, ptr %3, align 8
  %68 = getelementptr inbounds nuw %struct.GetState, ptr %67, i32 0, i32 7
  %69 = load ptr, ptr %68, align 8
  %70 = load i32, ptr %4, align 4
  %71 = sext i32 %70 to i64
  %72 = getelementptr inbounds i32, ptr %69, i64 %71
  %73 = load i32, ptr %72, align 4
  %74 = add i32 %73, %66
  store i32 %74, ptr %72, align 4
  br label %75

75:                                               ; preds = %65, %54
  call void @llvm.lifetime.end.p0(i64 4, ptr %6) #10
  call void @llvm.lifetime.end.p0(i64 4, ptr %5) #10
  br label %76

76:                                               ; preds = %75, %33, %18
  br label %94

77:                                               ; preds = %1
  %78 = load i32, ptr %4, align 4
  %79 = icmp eq i32 %78, 0
  br i1 %79, label %80, label %93

80:                                               ; preds = %77
  %81 = load ptr, ptr %3, align 8
  %82 = getelementptr inbounds nuw %struct.GetState, ptr %81, i32 0, i32 5
  %83 = load i32, ptr %82, align 4
  %84 = icmp eq i32 %83, 0
  br i1 %84, label %85, label %93

85:                                               ; preds = %80
  %86 = load ptr, ptr %3, align 8
  %87 = getelementptr inbounds nuw %struct.GetState, ptr %86, i32 0, i32 0
  %88 = load ptr, ptr %87, align 8
  %89 = getelementptr inbounds nuw %struct.JsonLexContext, ptr %88, i32 0, i32 3
  %90 = load ptr, ptr %89, align 8
  %91 = load ptr, ptr %3, align 8
  %92 = getelementptr inbounds nuw %struct.GetState, ptr %91, i32 0, i32 2
  store ptr %90, ptr %92, align 8
  br label %93

93:                                               ; preds = %85, %80, %77
  br label %94

94:                                               ; preds = %93, %76
  call void @llvm.lifetime.end.p0(i64 4, ptr %4) #10
  call void @llvm.lifetime.end.p0(i64 8, ptr %3) #10
  ret i32 0
}