; Function Attrs: nounwind uwtable
define internal noundef i32 @get_array_start(ptr noundef captures(none) %0) #0 {
  %2 = alloca i32, align 4
  %3 = load ptr, ptr %0, align 8
  %4 = getelementptr inbounds nuw i8, ptr %3, i64 56
  %5 = load i32, ptr %4, align 8
  %6 = getelementptr inbounds nuw i8, ptr %0, i64 28
  %7 = load i32, ptr %6, align 4
  %8 = icmp slt i32 %5, %7
  br i1 %8, label %9, label %32

9:                                                ; preds = %1
  %10 = getelementptr inbounds nuw i8, ptr %0, i64 56
  %11 = load ptr, ptr %10, align 8
  %12 = sext i32 %5 to i64
  %13 = getelementptr inbounds i32, ptr %11, i64 %12
  store i32 -1, ptr %13, align 4
  %14 = getelementptr inbounds nuw i8, ptr %0, i64 40
  %15 = load ptr, ptr %14, align 8
  %16 = getelementptr inbounds i32, ptr %15, i64 %12
  %17 = load i32, ptr %16, align 4
  %or.cond = icmp ult i32 %17, -2147483647
  br i1 %or.cond, label %38, label %18

18:                                               ; preds = %9
  call void @llvm.lifetime.start.p0(i64 4, ptr nonnull %2) #15
  %19 = load ptr, ptr %0, align 8
  %20 = call i32 @json_count_array_elements(ptr noundef %19, ptr noundef nonnull %2) #15
  %.not25 = icmp eq i32 %20, 0
  br i1 %.not25, label %23, label %21

21:                                               ; preds = %18
  %22 = load ptr, ptr %0, align 8
  call void @json_errsave_error(i32 noundef %20, ptr noundef %22, ptr noundef null)
  br label %23

23:                                               ; preds = %21, %18
  %24 = load ptr, ptr %14, align 8
  %25 = getelementptr inbounds i32, ptr %24, i64 %12
  %26 = load i32, ptr %25, align 4
  %27 = sub i32 0, %26
  %28 = load i32, ptr %2, align 4
  %.not26 = icmp slt i32 %28, %27
  br i1 %.not26, label %31, label %29

29:                                               ; preds = %23
  %30 = add i32 %28, %26
  store i32 %30, ptr %25, align 4
  br label %31

31:                                               ; preds = %29, %23
  call void @llvm.lifetime.end.p0(i64 4, ptr nonnull %2) #15
  br label %38

32:                                               ; preds = %1
  %33 = or i32 %7, %5
  %or.cond27 = icmp eq i32 %33, 0
  br i1 %or.cond27, label %34, label %38

34:                                               ; preds = %32
  %35 = getelementptr inbounds nuw i8, ptr %3, i64 24
  %36 = load ptr, ptr %35, align 8
  %37 = getelementptr inbounds nuw i8, ptr %0, i64 16
  store ptr %36, ptr %37, align 8
  br label %38

38:                                               ; preds = %32, %34, %9, %31
  ret i32 0
}